; Function Attrs: nounwind uwtable
define ptr @Hop_Oper(ptr noundef %0, ptr noundef %1, ptr noundef %2, i32 noundef %3) local_unnamed_addr #0 {
  switch i32 %3, label %Hop_And.exit [
    i32 4, label %5
    i32 5, label %56
  ]

5:                                                ; preds = %4
  %6 = icmp eq ptr %1, %2
  br i1 %6, label %Hop_And.exit, label %7

7:                                                ; preds = %5
  %8 = ptrtoint ptr %2 to i64
  %9 = xor i64 %8, 1
  %10 = inttoptr i64 %9 to ptr
  %11 = icmp eq ptr %1, %10
  br i1 %11, label %12, label %18

12:                                               ; preds = %7
  %13 = getelementptr inbounds nuw i8, ptr %0, i64 24
  %14 = load ptr, ptr %13, align 8, !tbaa !20
  %15 = ptrtoint ptr %14 to i64
  %16 = xor i64 %15, 1
  %17 = inttoptr i64 %16 to ptr
  br label %Hop_And.exit

18:                                               ; preds = %7
  %19 = ptrtoint ptr %1 to i64
  %20 = and i64 %19, -2
  %21 = inttoptr i64 %20 to ptr
  %22 = getelementptr inbounds nuw i8, ptr %0, i64 24
  %23 = load ptr, ptr %22, align 8, !tbaa !20
  %24 = icmp eq ptr %23, %21
  br i1 %24, label %25, label %30

25:                                               ; preds = %18
  %26 = icmp eq ptr %1, %21
  br i1 %26, label %Hop_And.exit, label %27

27:                                               ; preds = %25
  %28 = or i64 %19, 1
  %29 = inttoptr i64 %28 to ptr
  br label %Hop_And.exit

30:                                               ; preds = %18
  %31 = and i64 %8, -2
  %32 = inttoptr i64 %31 to ptr
  %33 = icmp eq ptr %23, %32
  br i1 %33, label %34, label %40

34:                                               ; preds = %30
  %35 = icmp eq ptr %2, %23
  br i1 %35, label %Hop_And.exit, label %36

36:                                               ; preds = %34
  %37 = ptrtoint ptr %23 to i64
  %38 = xor i64 %37, 1
  %39 = inttoptr i64 %38 to ptr
  br label %Hop_And.exit

40:                                               ; preds = %30
  %41 = getelementptr inbounds nuw i8, ptr %0, i64 64
  %42 = load i32, ptr %41, align 8
  %43 = and i32 %42, -8
  %44 = or disjoint i32 %43, 4
  store i32 %44, ptr %41, align 8
  %45 = getelementptr inbounds nuw i8, ptr %21, i64 36
  %46 = load i32, ptr %45, align 4, !tbaa !21
  %47 = getelementptr inbounds nuw i8, ptr %32, i64 36
  %48 = load i32, ptr %47, align 4, !tbaa !21
  %49 = icmp slt i32 %46, %48
  %spec.select.i.i = select i1 %49, ptr %1, ptr %2
  %spec.select14.i.i = select i1 %49, ptr %2, ptr %1
  %50 = getelementptr inbounds nuw i8, ptr %0, i64 48
  store ptr %spec.select.i.i, ptr %50, align 8, !tbaa !22
  %51 = getelementptr inbounds nuw i8, ptr %0, i64 56
  store ptr %spec.select14.i.i, ptr %51, align 8, !tbaa !23
  %52 = getelementptr inbounds nuw i8, ptr %0, i64 32
  %53 = tail call ptr @Hop_TableLookup(ptr noundef nonnull %0, ptr noundef nonnull %52) #2
  %.not.i = icmp eq ptr %53, null
  br i1 %.not.i, label %54, label %Hop_And.exit

54:                                               ; preds = %40
  %55 = tail call ptr @Hop_ObjCreate(ptr noundef nonnull %0, ptr noundef nonnull %52) #2
  br label %Hop_And.exit

56:                                               ; preds = %4
  %57 = tail call ptr @Hop_Exor(ptr noundef %0, ptr noundef %1, ptr noundef %2)
  br label %Hop_And.exit

Hop_And.exit:                                     ; preds = %54, %40, %36, %34, %27, %25, %12, %5, %4, %56
  %.0 = phi ptr [ %57, %56 ], [ null, %4 ], [ %17, %12 ], [ %55, %54 ], [ %1, %5 ], [ %29, %27 ], [ %2, %25 ], [ %39, %36 ], [ %1, %34 ], [ %53, %40 ]
  ret ptr %.0
}